target datalayout = "e-m:e-p270:32:32-p271:32:32-p272:64:64-i64:64-i128:128-f80:128-n8:16:32:64-S128"
target triple = "x86_64-pc-linux-gnu"

; Function Attrs: inlinehint nounwind sspstrong willreturn memory(none) uwtable
define internal zeroext i1 @RB_TEST(i64 noundef %0) #5 {
  %2 = alloca i64, align 8
  store i64 %0, ptr %2, align 8, !tbaa !7
  %3 = load i64, ptr %2, align 8, !tbaa !7
  %4 = and i64 %3, -5
  %5 = icmp ne i64 %4, 0
  ret i1 %5
}

; Function Attrs: nounwind sspstrong uwtable
define internal i32 @any_p_i_fast(i64 noundef %0, i64 noundef %1, i64 noundef %2) #0 {
  %4 = alloca i32, align 4
  %5 = alloca i64, align 8
  %6 = alloca i64, align 8
  %7 = alloca i64, align 8
  %8 = alloca i64, align 8
  %9 = alloca i32, align 4
  store i64 %0, ptr %5, align 8, !tbaa !7
  store i64 %1, ptr %6, align 8, !tbaa !7
  store i64 %2, ptr %7, align 8, !tbaa !7
  call void @llvm.lifetime.start.p0(i64 8, ptr %8) #28
  %10 = load i64, ptr %5, align 8, !tbaa !7
  %11 = load i64, ptr %6, align 8, !tbaa !7
  %12 = call i64 (i32, ...) @rb_yield_values(i32 noundef 2, i64 noundef %10, i64 noundef %11)
  store i64 %12, ptr %8, align 8, !tbaa !7
  %13 = load i64, ptr %8, align 8, !tbaa !7
  %14 = call zeroext i1 @RB_TEST(i64 noundef %13) #27
  br i1 %14, label %15, label %18

15:                                               ; preds = %3
  %16 = load i64, ptr %7, align 8, !tbaa !7
  %17 = inttoptr i64 %16 to ptr
  store i64 20, ptr %17, align 8, !tbaa !7
  store i32 1, ptr %4, align 4
  store i32 1, ptr %9, align 4
  br label %19

18:                                               ; preds = %3
  store i32 0, ptr %4, align 4
  store i32 1, ptr %9, align 4
  br label %19

19:                                               ; preds = %18, %15
  call void @llvm.lifetime.end.p0(i64 8, ptr %8) #28
  %20 = load i32, ptr %4, align 4
  ret i32 %20
}