; Function Attrs: nounwind sspstrong uwtable
define internal range(i32 0, 2) i32 @any_p_i_fast(i64 noundef %0, i64 noundef %1, i64 noundef %2) #0 {
  %4 = tail call i64 (i32, ...) @rb_yield_values(i32 noundef 2, i64 noundef %0, i64 noundef %1) #28
  %5 = and i64 %4, -5
  %.not = icmp eq i64 %5, 0
  br i1 %.not, label %8, label %6

6:                                                ; preds = %3
  %7 = inttoptr i64 %2 to ptr
  store i64 20, ptr %7, align 8, !tbaa !7
  br label %8

8:                                                ; preds = %3, %6
  %.0 = phi i32 [ 1, %6 ], [ 0, %3 ]
  ret i32 %.0
}